; Function Attrs: mustprogress uwtable
define void @_ZN4cvc56parser10SymManager14Implementation16setLastSynthNameERKNSt7__cxx1112basic_stringIcSt11char_traitsIcESaIcEEE(ptr noundef nonnull align 8 dereferenceable(584) %this, ptr noundef nonnull align 8 dereferenceable(32) %name) local_unnamed_addr #3 align 2 {
entry:
  %d_pScope.i.i.i = getelementptr inbounds i8, ptr %this, i64 520
  %0 = load ptr, ptr %d_pScope.i.i.i, align 8
  %1 = load ptr, ptr %0, align 8
  %_M_finish.i.i.i.i.i.i.i = getelementptr inbounds i8, ptr %1, i64 16
  %2 = load ptr, ptr %_M_finish.i.i.i.i.i.i.i, align 8
  %add.ptr.i.i.i.i.i.i.i = getelementptr inbounds i8, ptr %2, i64 -8
  %3 = load ptr, ptr %add.ptr.i.i.i.i.i.i.i, align 8
  %cmp.i.i.i.i = icmp eq ptr %3, %0
  br i1 %cmp.i.i.i.i, label %_ZN4cvc57context3CDOINSt7__cxx1112basic_stringIcSt11char_traitsIcESaIcEEEEaSERKS7_.exit, label %if.then.i.i.i

if.then.i.i.i:                                    ; preds = %entry
  %d_lastSynthName = getelementptr inbounds i8, ptr %this, i64 512
  tail call void @_ZN4cvc57context10ContextObj6updateEv(ptr noundef nonnull align 8 dereferenceable(40) %d_lastSynthName)
  br label %_ZN4cvc57context3CDOINSt7__cxx1112basic_stringIcSt11char_traitsIcESaIcEEEEaSERKS7_.exit

_ZN4cvc57context3CDOINSt7__cxx1112basic_stringIcSt11char_traitsIcESaIcEEEEaSERKS7_.exit: ; preds = %entry, %if.then.i.i.i
  %d_data.i.i = getelementptr inbounds i8, ptr %this, i64 552
  %call.i.i = tail call noundef nonnull align 8 dereferenceable(32) ptr @_ZNSt7__cxx1112basic_stringIcSt11char_traitsIcESaIcEEaSERKS4_(ptr noundef nonnull align 8 dereferenceable(32) %d_data.i.i, ptr noundef nonnull align 8 dereferenceable(32) %name)
  ret void
}